; Function Attrs: nofree nosync nounwind memory(readwrite, inaccessiblemem: none) uwtable
define internal fastcc range(i32 -221, 1) i32 @infinite_recursive_call_check_trav(ptr noundef captures(none) %0, ptr noundef nonnull %1) unnamed_addr #15 {
  br label %tailrecurse

tailrecurse:                                      ; preds = %tailrecurse.backedge, %2
  %.tr = phi ptr [ %0, %2 ], [ %.tr.be, %tailrecurse.backedge ]
  %3 = load i32, ptr %.tr, align 8, !tbaa !20
  switch i32 %3, label %.critedge [
    i32 7, label %.preheader
    i32 8, label %.preheader
    i32 6, label %12
    i32 4, label %tailrecurse.backedge
    i32 5, label %16
  ]

.preheader:                                       ; preds = %tailrecurse, %tailrecurse
  br label %4

4:                                                ; preds = %.preheader, %9
  %.038 = phi ptr [ %11, %9 ], [ %.tr, %.preheader ]
  %5 = getelementptr inbounds nuw i8, ptr %.038, i64 16
  %6 = load ptr, ptr %5, align 8, !tbaa !20
  %7 = tail call fastcc i32 @infinite_recursive_call_check_trav(ptr noundef %6, ptr noundef %1)
  %8 = icmp eq i32 %7, 0
  br i1 %8, label %9, label %.critedge

9:                                                ; preds = %4
  %10 = getelementptr inbounds nuw i8, ptr %.038, i64 24
  %11 = load ptr, ptr %10, align 8, !tbaa !20
  %.not56 = icmp eq ptr %11, null
  br i1 %.not56, label %.critedge, label %4, !llvm.loop !218

12:                                               ; preds = %tailrecurse
  %13 = getelementptr inbounds nuw i8, ptr %.tr, i64 24
  %14 = load i32, ptr %13, align 8, !tbaa !20
  %15 = icmp slt i32 %14, 16
  br i1 %15, label %tailrecurse.backedge, label %.critedge

tailrecurse.backedge:                             ; preds = %19, %35, %38, %16, %.thread, %tailrecurse, %12
  %.tr.be.in = getelementptr inbounds nuw i8, ptr %.tr, i64 16
  %.tr.be = load ptr, ptr %.tr.be.in, align 8, !tbaa !20
  br label %tailrecurse

16:                                               ; preds = %tailrecurse
  %17 = getelementptr inbounds nuw i8, ptr %.tr, i64 24
  %18 = load i32, ptr %17, align 8, !tbaa !98
  switch i32 %18, label %tailrecurse.backedge [
    i32 0, label %19
    i32 3, label %30
  ]

19:                                               ; preds = %16
  %20 = getelementptr inbounds nuw i8, ptr %.tr, i64 4
  %21 = load i32, ptr %20, align 4, !tbaa !20
  %22 = and i32 %21, 192
  %or.cond.not = icmp eq i32 %22, 192
  br i1 %or.cond.not, label %23, label %tailrecurse.backedge

23:                                               ; preds = %19
  %24 = or i32 %21, 8
  store i32 %24, ptr %20, align 4, !tbaa !20
  %25 = getelementptr inbounds nuw i8, ptr %.tr, i64 16
  %26 = load ptr, ptr %25, align 8, !tbaa !20
  %27 = tail call fastcc i32 @infinite_recursive_call_check(ptr noundef %26, ptr noundef %1, i32 noundef 1)
  %.not55 = icmp samesign ult i32 %27, 2
  br i1 %.not55, label %.thread, label %.critedge

.thread:                                          ; preds = %23
  %28 = load i32, ptr %20, align 4, !tbaa !20
  %29 = and i32 %28, -9
  store i32 %29, ptr %20, align 4, !tbaa !20
  br label %tailrecurse.backedge

30:                                               ; preds = %16
  %31 = getelementptr inbounds nuw i8, ptr %.tr, i64 32
  %32 = load ptr, ptr %31, align 8, !tbaa !20
  %.not = icmp eq ptr %32, null
  br i1 %.not, label %35, label %33

33:                                               ; preds = %30
  %34 = tail call fastcc i32 @infinite_recursive_call_check_trav(ptr noundef nonnull %32, ptr noundef %1)
  %.not50 = icmp eq i32 %34, 0
  br i1 %.not50, label %35, label %.critedge

35:                                               ; preds = %33, %30
  %36 = getelementptr inbounds nuw i8, ptr %.tr, i64 40
  %37 = load ptr, ptr %36, align 8, !tbaa !20
  %.not51 = icmp eq ptr %37, null
  br i1 %.not51, label %tailrecurse.backedge, label %38

38:                                               ; preds = %35
  %39 = tail call fastcc i32 @infinite_recursive_call_check_trav(ptr noundef nonnull %37, ptr noundef %1)
  %.not52 = icmp eq i32 %39, 0
  br i1 %.not52, label %tailrecurse.backedge, label %.critedge

.critedge:                                        ; preds = %23, %38, %33, %12, %tailrecurse, %9, %4
  %.3 = phi i32 [ %7, %4 ], [ 0, %9 ], [ %34, %33 ], [ %39, %38 ], [ -221, %23 ], [ 0, %tailrecurse ], [ 0, %12 ]
  ret i32 %.3
}